target datalayout = "e-m:e-p270:32:32-p271:32:32-p272:64:64-i64:64-i128:128-f80:128-n8:16:32:64-S128"
target triple = "x86_64-unknown-linux-gnu"

%"class.boost::detail::shared_count" = type { ptr }
%"class.std::vector" = type { %"struct.std::_Vector_base" }
%"struct.std::_Vector_base" = type { %"struct.std::_Vector_base<boost::shared_ptr<QuantLib::BoundaryCondition<QuantLib::FdmLinearOp>>, std::allocator<boost::shared_ptr<QuantLib::BoundaryCondition<QuantLib::FdmLinearOp>>>>::_Vector_impl" }
%"struct.std::_Vector_base<boost::shared_ptr<QuantLib::BoundaryCondition<QuantLib::FdmLinearOp>>, std::allocator<boost::shared_ptr<QuantLib::BoundaryCondition<QuantLib::FdmLinearOp>>>>::_Vector_impl" = type { %"struct.std::_Vector_base<boost::shared_ptr<QuantLib::BoundaryCondition<QuantLib::FdmLinearOp>>, std::allocator<boost::shared_ptr<QuantLib::BoundaryCondition<QuantLib::FdmLinearOp>>>>::_Vector_impl_data" }
%"struct.std::_Vector_base<boost::shared_ptr<QuantLib::BoundaryCondition<QuantLib::FdmLinearOp>>, std::allocator<boost::shared_ptr<QuantLib::BoundaryCondition<QuantLib::FdmLinearOp>>>>::_Vector_impl_data" = type { ptr, ptr, ptr }
%"class.QuantLib::ImplicitEulerScheme" = type <{ double, %"class.boost::shared_ptr.19", double, %"class.boost::shared_ptr.18", %"class.QuantLib::BoundaryConditionSchemeHelper", i32, [4 x i8] }>
%"class.boost::shared_ptr.19" = type { ptr, %"class.boost::detail::shared_count" }
%"class.boost::shared_ptr.18" = type { ptr, %"class.boost::detail::shared_count" }
%"class.QuantLib::BoundaryConditionSchemeHelper" = type { %"class.std::vector" }

@.str.11 = private unnamed_addr constant [8 x i8] c"px != 0\00", align 1
@.str.12 = private unnamed_addr constant [102 x i8] c"generated/home/dtcxzyw/WorkSpace/SDK/vcpkg/installed/x64-linux/include/boost/smart_ptr/shared_ptr.hpp\00", align 1
@__PRETTY_FUNCTION__._ZNK5boost10shared_ptrImEdeEv = private unnamed_addr constant [120 x i8] c"typename boost::detail::sp_dereference<T>::type boost::shared_ptr<unsigned long>::operator*() const [T = unsigned long]\00", align 1

; Function Attrs: mustprogress uwtable
define linkonce_odr noundef nonnull align 8 dereferenceable(8) ptr @_ZNK5boost10shared_ptrImEdeEv(ptr noundef nonnull align 8 dereferenceable(16) %this) #3 comdat align 2 {
entry:
  %this.addr = alloca ptr, align 8
  store ptr %this, ptr %this.addr, align 8, !tbaa !3
  %this1 = load ptr, ptr %this.addr, align 8
  %px = getelementptr inbounds nuw %"class.boost::shared_ptr.19", ptr %this1, i32 0, i32 0
  %0 = load ptr, ptr %px, align 8, !tbaa !52
  %cmp = icmp ne ptr %0, null
  %lnot = xor i1 %cmp, true
  %lnot2 = xor i1 %lnot, true
  %conv = zext i1 %lnot2 to i64
  %expval = call i64 @llvm.expect.i64(i64 %conv, i64 1)
  %tobool = icmp ne i64 %expval, 0
  br i1 %tobool, label %cond.true, label %cond.false

cond.true:                                        ; preds = %entry
  br label %cond.end

cond.false:                                       ; preds = %entry
  call void @_ZN5boost16assertion_failedEPKcS1_S1_l(ptr noundef @.str.11, ptr noundef @__PRETTY_FUNCTION__._ZNK5boost10shared_ptrImEdeEv, ptr noundef @.str.12, i64 noundef 778)
  br label %cond.end

cond.end:                                         ; preds = %cond.false, %cond.true
  %px3 = getelementptr inbounds nuw %"class.boost::shared_ptr.19", ptr %this1, i32 0, i32 0
  %1 = load ptr, ptr %px3, align 8, !tbaa !52
  ret ptr %1
}

; Function Attrs: mustprogress uwtable
define noundef i64 @_ZNK8QuantLib19ImplicitEulerScheme18numberOfIterationsEv(ptr noundef nonnull align 8 dereferenceable(76) %this) #3 align 2 {
entry:
  %this.addr = alloca ptr, align 8
  store ptr %this, ptr %this.addr, align 8, !tbaa !3
  %this1 = load ptr, ptr %this.addr, align 8
  %iterations_ = getelementptr inbounds nuw %"class.QuantLib::ImplicitEulerScheme", ptr %this1, i32 0, i32 1
  %call = call noundef nonnull align 8 dereferenceable(8) ptr @_ZNK5boost10shared_ptrImEdeEv(ptr noundef nonnull align 8 dereferenceable(16) %iterations_)
  %0 = load i64, ptr %call, align 8, !tbaa !27
  ret i64 %0
}