; Function Attrs: mustprogress uwtable
define noundef i64 @_ZNK8QuantLib19ImplicitEulerScheme18numberOfIterationsEv(ptr nocapture noundef nonnull readonly align 8 dereferenceable(76) %this) local_unnamed_addr #3 align 2 {
entry:
  %iterations_ = getelementptr inbounds nuw i8, ptr %this, i64 8
  %0 = load ptr, ptr %iterations_, align 8, !tbaa !51
  %cmp.not.i = icmp eq ptr %0, null
  br i1 %cmp.not.i, label %cond.false.i, label %_ZNK5boost10shared_ptrImEdeEv.exit, !prof !34

cond.false.i:                                     ; preds = %entry
  tail call void @_ZN5boost16assertion_failedEPKcS1_S1_l(ptr noundef nonnull @.str.11, ptr noundef nonnull @__PRETTY_FUNCTION__._ZNK5boost10shared_ptrImEdeEv, ptr noundef nonnull @.str.12, i64 noundef 778)
  %.pre.i = load ptr, ptr %iterations_, align 8, !tbaa !51
  br label %_ZNK5boost10shared_ptrImEdeEv.exit

_ZNK5boost10shared_ptrImEdeEv.exit:               ; preds = %entry, %cond.false.i
  %1 = phi ptr [ %0, %entry ], [ %.pre.i, %cond.false.i ]
  %2 = load i64, ptr %1, align 8, !tbaa !8
  ret i64 %2
}